c__builtin__
set
p0
((lp1
S'http://www.topcoder.com/tc?module=Static&d1=match_editorials&d2=srm331'
p2
aS'http://www.topcoder.com/tc?module=Static&d1=match_editorials&d2=srm333'
p3
aS'http://www.topcoder.com/tc?module=Static&d1=match_editorials&d2=srm408'
p4
aS'http://www.topcoder.com/tc?module=Static&d1=match_editorials&d2=srm403'
p5
aS'http://www.topcoder.com/tc?module=Static&d1=match_editorials&d2=srm402'
p6
aS'http://www.topcoder.com/tc?module=Static&d1=match_editorials&d2=srm177'
p7
aS'http://www.topcoder.com/tc?module=Static&d1=match_editorials&d2=srm225'
p8
aS'http://www.topcoder.com/tc?module=Static&d1=match_editorials&d2=srm173'
p9
aS'http://www.topcoder.com/tc?module=Static&d1=match_editorials&d2=srm172'
p10
aS'http://www.topcoder.com/tc?module=Static&d1=match_editorials&d2=srm272'
p11
aS'http://www.topcoder.com/tc?module=Static&d1=match_editorials&d2=srm273'
p12
aS'http://www.topcoder.com/tc?module=Static&d1=match_editorials&d2=srm270'
p13
aS'http://www.topcoder.com/tc?module=Static&d1=match_editorials&d2=srm271'
p14
aS'http://www.topcoder.com/tc?module=Static&d1=match_editorials&d2=srm276'
p15
aS'http://www.topcoder.com/tc?module=Static&d1=match_editorials&d2=srm178'
p16
aS'http://apps.topcoder.com/wiki/display/tc/SRM+441'
p17
aS'http://apps.topcoder.com/wiki/display/tc/SRM+440'
p18
aS'http://www.topcoder.com/tc?module=Static&d1=match_editorials&d2=srm284'
p19
aS'http://www.topcoder.com/tc?module=Static&d1=match_editorials&d2=srm282'
p20
aS'http://www.topcoder.com/tc?module=Static&d1=match_editorials&d2=srm281'
p21
aS'http://www.topcoder.com/tc?module=Static&d1=match_editorials&d2=srm280'
p22
aS'http://apps.topcoder.com/wiki/display/tc/TCO%2709+Semifinal+Round'
p23
aS'http://www.topcoder.com/tc?module=Static&d1=match_editorials&d2=srm289'
p24
aS'http://www.topcoder.com/tc?module=Static&d1=match_editorials&d2=srm288'
p25
aS'http://www.topcoder.com/tc?module=Static&d1=match_editorials&d2=srm364'
p26
aS'http://www.topcoder.com/tc?module=Static&d1=match_editorials&d2=srm365'
p27
aS'http://www.topcoder.com/tc?module=Static&d1=match_editorials&d2=srm418'
p28
aS'http://www.topcoder.com/tc?module=Static&d1=match_editorials&d2=invit02_r1a'
p29
aS'http://www.topcoder.com/tc?module=Static&d1=match_editorials&d2=srm360'
p30
aS'http://www.topcoder.com/tc?module=Static&d1=match_editorials&d2=srm361'
p31
aS'http://www.topcoder.com/tc?module=Static&d1=match_editorials&d2=srm362'
p32
aS'http://www.topcoder.com/tc?module=Static&d1=match_editorials&d2=srm363'
p33
aS'http://www.topcoder.com/tc?module=Static&d1=match_editorials&d2=srm412'
p34
aS'http://www.topcoder.com/tc?module=Static&d1=match_editorials&d2=srm413'
p35
aS'http://www.topcoder.com/tc?module=Static&d1=match_editorials&d2=srm410'
p36
aS'http://www.topcoder.com/tc?module=Static&d1=match_editorials&d2=srm411'
p37
aS'http://www.topcoder.com/tc?module=Static&d1=match_editorials&d2=srm368'
p38
aS'http://www.topcoder.com/tc?module=Static&d1=match_editorials&d2=srm369'
p39
aS'http://www.topcoder.com/tc?module=Static&d1=match_editorials&d2=srm414'
p40
aS'http://www.topcoder.com/tc?module=Static&d1=match_editorials&d2=srm415'
p41
aS'http://www.topcoder.com/tc?module=Static&d1=match_editorials&d2=srm166'
p42
aS'http://www.topcoder.com/tc?module=Static&d1=match_editorials&d2=srm167'
p43
aS'http://www.topcoder.com/tc?module=Static&d1=match_editorials&d2=srm164'
p44
aS'http://www.topcoder.com/tc?module=Static&d1=match_editorials&d2=srm165'
p45
aS'http://www.topcoder.com/tc?module=Static&d1=match_editorials&d2=srm162'
p46
aS'http://www.topcoder.com/tc?module=Static&d1=match_editorials&d2=srm163'
p47
aS'http://www.topcoder.com/tc?module=Static&d1=match_editorials&d2=srm209'
p48
aS'http://www.topcoder.com/tc?module=Static&d1=match_editorials&d2=srm161'
p49
aS'http://www.topcoder.com/tc?module=Static&d1=match_editorials&d2=srm207'
p50
aS'http://www.topcoder.com/tc?module=Static&d1=match_editorials&d2=srm206'
p51
aS'http://www.topcoder.com/tc?module=Static&d1=match_editorials&d2=srm205'
p52
aS'http://www.topcoder.com/tc?module=Static&d1=match_editorials&d2=srm204'
p53
aS'http://www.topcoder.com/tc?module=Static&d1=match_editorials&d2=srm203'
p54
aS'http://www.topcoder.com/tc?module=Static&d1=match_editorials&d2=srm202'
p55
aS'http://www.topcoder.com/tc?module=Static&d1=match_editorials&d2=srm201'
p56
aS'http://www.topcoder.com/tc?module=Static&d1=match_editorials&d2=srm200'
p57
aS'http://www.topcoder.com/tc?module=Static&d1=match_editorials&d2=tccc05_qual_5'
p58
aS'http://www.topcoder.com/tc?module=Static&d1=match_editorials&d2=tccc05_qual_4'
p59
aS'http://www.topcoder.com/tc?module=Static&d1=match_editorials&d2=tccc05_qual_3'
p60
aS'http://www.topcoder.com/tc?module=Static&d1=match_editorials&d2=tccc05_qual_2'
p61
aS'http://www.topcoder.com/tc?module=Static&d1=match_editorials&d2=tccc05_qual_1'
p62
aS'http://www.topcoder.com/tc?module=Static&d1=match_editorials&d2=srm179'
p63
aS'http://www.topcoder.com/tc?module=Static&d1=match_editorials&d2=tco08rd1'
p64
aS'http://www.topcoder.com/tc?module=Static&d1=match_editorials&d2=srm250'
p65
aS'http://www.topcoder.com/tc?module=Static&d1=match_editorials&d2=srm251'
p66
aS'http://www.topcoder.com/tc?module=Static&d1=match_editorials&d2=srm321'
p67
aS'http://www.topcoder.com/tc?module=Static&d1=match_editorials&d2=srm227'
p68
aS'http://www.topcoder.com/tc?module=Static&d1=match_editorials&d2=srm128'
p69
aS'http://apps.topcoder.com/wiki/display/tc/TCO%2709+Qualification+Round+1'
p70
aS'http://apps.topcoder.com/wiki/display/tc/TCO%2709+Qualification+Round+2'
p71
aS'http://apps.topcoder.com/wiki/display/tc/TCO%2709+Qualification+Round+3'
p72
aS'http://www.topcoder.com/tc?module=Static&d1=match_editorials&d2=tccc03_nese'
p73
aS'http://www.topcoder.com/tc?module=Static&d1=match_editorials&d2=tco06_qual'
p74
aS'http://www.topcoder.com/tc?module=Static&d1=match_editorials&d2=srm349'
p75
aS'http://www.topcoder.com/tc?module=Static&d1=match_editorials&d2=tccc07_rd1b'
p76
aS'http://www.topcoder.com/tc?module=Static&d1=match_editorials&d2=tccc07_rd1c'
p77
aS'http://www.topcoder.com/tc?module=Static&d1=match_editorials&d2=tccc07_rd1a'
p78
aS'http://www.topcoder.com/tc?module=Static&d1=match_editorials&d2=srm240'
p79
aS'http://www.topcoder.com/tc?module=Static&d1=match_editorials&d2=tccc04_qual_1'
p80
aS'http://www.topcoder.com/tc?module=Static&d1=match_editorials&d2=srm122'
p81
aS'http://www.topcoder.com/tc?module=Static&d1=match_editorials&d2=tccc04_qual_2'
p82
aS'http://www.topcoder.com/tc?module=Static&d1=match_editorials&d2=srm123'
p83
aS'http://www.topcoder.com/tc?module=Static&d1=match_editorials&d2=srm136'
p84
aS'http://www.topcoder.com/tc?module=Static&d1=match_editorials&d2=srm134'
p85
aS'http://www.topcoder.com/tc?module=Static&d1=match_editorials&d2=tccc03_reg_quart'
p86
aS'http://www.topcoder.com/tc?module=Static&d1=match_editorials&d2=tccc06_qual_3'
p87
aS'http://www.topcoder.com/tc?module=Static&d1=match_editorials&d2=srm306'
p88
aS'http://www.topcoder.com/tc?module=Static&d1=match_editorials&d2=srm307'
p89
aS'http://www.topcoder.com/tc?module=Static&d1=match_editorials&d2=srm304'
p90
aS'http://www.topcoder.com/tc?module=Static&d1=match_editorials&d2=srm305'
p91
aS'http://www.topcoder.com/tc?module=Static&d1=match_editorials&d2=srm302'
p92
aS'http://www.topcoder.com/tc?module=Static&d1=match_editorials&d2=srm303'
p93
aS'http://www.topcoder.com/tc?module=Static&d1=match_editorials&d2=srm300'
p94
aS'http://www.topcoder.com/tc?module=Static&d1=match_editorials&d2=srm301'
p95
aS'http://www.topcoder.com/tc?module=Static&d1=match_editorials&d2=srm308'
p96
aS'http://www.topcoder.com/tc?module=Static&d1=match_editorials&d2=srm309'
p97
aS'http://apps.topcoder.com/wiki/display/tc/TCO%2709+Elimination+Round+2'
p98
aS'http://apps.topcoder.com/wiki/display/tc/TCO%2709+Elimination+Round+3'
p99
aS'http://apps.topcoder.com/wiki/display/tc/TCO%2709+Elimination+Round+1'
p100
aS'http://apps.topcoder.com/wiki/display/tc/TCO%2709+Elimination+Round+4'
p101
aS'http://apps.topcoder.com/wiki/display/tc/TCO%2709+Elimination+Round+5'
p102
aS'http://www.topcoder.com/tc?module=Static&d1=match_editorials&d2=tco07_qual_rd3'
p103
aS'http://www.topcoder.com/tc?module=Static&d1=match_editorials&d2=tco07_qual_rd2'
p104
aS'http://www.topcoder.com/tc?module=Static&d1=match_editorials&d2=tco07_qual_rd1'
p105
aS'http://www.topcoder.com/tc?module=Static&d1=match_editorials&d2=tco03_online_rd_3'
p106
aS'http://www.topcoder.com/tc?module=Static&d1=match_editorials&d2=tco03_online_rd_2'
p107
aS'http://www.topcoder.com/tc?module=Static&d1=match_editorials&d2=tco03_online_rd_1'
p108
aS'http://www.topcoder.com/tc?module=Static&d1=match_editorials&d2=srm228'
p109
aS'http://www.topcoder.com/tc?module=Static&d1=match_editorials&d2=tco03_online_rd_4'
p110
aS'http://www.topcoder.com/tc?module=Static&d1=match_editorials&d2=srm236'
p111
aS'http://www.topcoder.com/tc?module=Static&d1=match_editorials&d2=srm138'
p112
aS'http://www.topcoder.com/tc?module=Static&d1=match_editorials&d2=tccc07_rd2'
p113
aS'http://www.topcoder.com/tc?module=Static&d1=match_editorials&d2=tccc07_rd3'
p114
aS'http://www.topcoder.com/tc?module=Static&d1=match_editorials&d2=tccc07_rd4'
p115
aS'http://www.topcoder.com/tc?module=Static&d1=match_editorials&d2=srm139'
p116
aS'http://www.topcoder.com/tc?module=Static&d1=match_editorials&d2=srm237'
p117
aS'http://www.topcoder.com/tc?module=Static&d1=match_editorials&d2=srm234'
p118
aS'http://www.topcoder.com/tc?module=Static&d1=match_editorials&d2=srm235'
p119
aS'http://www.topcoder.com/tc?module=Static&d1=match_editorials&d2=srm232'
p120
aS'http://www.topcoder.com/tc?module=Static&d1=match_editorials&d2=srm233'
p121
aS'http://www.topcoder.com/tc?module=Static&d1=match_editorials&d2=srm230'
p122
aS'http://www.topcoder.com/tc?module=Static&d1=match_editorials&d2=srm231'
p123
aS'http://www.topcoder.com/tc?module=Static&d1=match_editorials&d2=srm131'
p124
aS'http://www.topcoder.com/tc?module=Static&d1=match_editorials&d2=srm336'
p125
aS'http://www.topcoder.com/tc?module=Static&d1=match_editorials&d2=srm335'
p126
aS'http://www.topcoder.com/tc?module=Static&d1=match_editorials&d2=srm132'
p127
aS'http://www.topcoder.com/tc?module=Static&d1=match_editorials&d2=srm135'
p128
aS'http://www.topcoder.com/tc?module=Static&d1=match_editorials&d2=tco08rd2'
p129
aS'http://www.topcoder.com/tc?module=Static&d1=match_editorials&d2=srm238'
p130
aS'http://www.topcoder.com/tc?module=Static&d1=match_editorials&d2=srm239'
p131
aS'http://www.topcoder.com/tc?module=Static&d1=match_editorials&d2=srm320'
p132
aS'http://www.topcoder.com/tc?module=Static&d1=match_editorials&d2=srm339'
p133
aS'http://www.topcoder.com/tc?module=Static&d1=match_editorials&d2=srm338'
p134
aS'http://www.topcoder.com/tc?module=Static&d1=match_editorials&d2=srm337'
p135
aS'http://www.topcoder.com/tc?module=Static&d1=match_editorials&d2=srm332'
p136
aS'http://www.topcoder.com/tc?module=Static&d1=match_editorials&d2=srm133'
p137
aS'http://www.topcoder.com/tc?module=Static&d1=match_editorials&d2=srm243'
p138
aS'http://www.topcoder.com/tc?module=Static&d1=match_editorials&d2=srm242'
p139
aS'http://www.topcoder.com/tc?module=Static&d1=match_editorials&d2=srm241'
p140
aS'http://www.topcoder.com/tc?module=Static&d1=match_editorials&d2=tco08rd4'
p141
aS'http://www.topcoder.com/tc?module=Static&d1=match_editorials&d2=srm247'
p142
aS'http://www.topcoder.com/tc?module=Static&d1=match_editorials&d2=srm246'
p143
aS'http://www.topcoder.com/tc?module=Static&d1=match_editorials&d2=srm245'
p144
aS'http://www.topcoder.com/tc?module=Static&d1=match_editorials&d2=srm244'
p145
aS'http://www.topcoder.com/tc?module=Static&d1=match_editorials&d2=tccc03_reg_semi'
p146
aS'http://www.topcoder.com/tc?module=Static&d1=match_editorials&d2=srm249'
p147
aS'http://www.topcoder.com/tc?module=Static&d1=match_editorials&d2=srm248'
p148
aS'http://www.topcoder.com/tc?module=Static&d1=match_editorials&d2=srm334'
p149
aS'http://apps.topcoder.com/wiki/display/tc/SRM+436'
p150
aS'http://apps.topcoder.com/wiki/display/tc/SRM+437'
p151
aS'http://www.topcoder.com/tc?module=Static&d1=match_editorials&d2=srm322'
p152
aS'http://www.topcoder.com/tc?module=Static&d1=match_editorials&d2=srm129'
p153
aS'http://www.topcoder.com/tc?module=Static&d1=match_editorials&d2=srm324'
p154
aS'http://www.topcoder.com/tc?module=Static&d1=match_editorials&d2=srm325'
p155
aS'http://www.topcoder.com/tc?module=Static&d1=match_editorials&d2=srm326'
p156
aS'http://www.topcoder.com/tc?module=Static&d1=match_editorials&d2=srm327'
p157
aS'http://www.topcoder.com/tc?module=Static&d1=match_editorials&d2=srm328'
p158
aS'http://www.topcoder.com/tc?module=Static&d1=match_editorials&d2=srm329'
p159
aS'http://www.topcoder.com/tc?module=Static&d1=match_editorials&d2=srm120'
p160
aS'http://www.topcoder.com/tc?module=Static&d1=match_editorials&d2=srm121'
p161
aS'http://www.topcoder.com/tc?module=Static&d1=match_editorials&d2=srm126'
p162
aS'http://www.topcoder.com/tc?module=Static&d1=match_editorials&d2=srm127'
p163
aS'http://www.topcoder.com/tc?module=Static&d1=match_editorials&d2=srm124'
p164
aS'http://www.topcoder.com/tc?module=Static&d1=match_editorials&d2=srm125'
p165
aS'http://www.topcoder.com/tc?module=Static&d1=match_editorials&d2=srm330'
p166
aS'http://www.topcoder.com/tc?module=Static&d1=match_editorials&d2=srm199'
p167
aS'http://www.topcoder.com/tc?module=Static&d1=match_editorials&d2=srm198'
p168
aS'http://www.topcoder.com/tc?module=Static&d1=match_editorials&d2=srm193'
p169
aS'http://www.topcoder.com/tc?module=Static&d1=match_editorials&d2=srm192'
p170
aS'http://www.topcoder.com/tc?module=Static&d1=match_editorials&d2=srm191'
p171
aS'http://www.topcoder.com/tc?module=Static&d1=match_editorials&d2=srm323'
p172
aS'http://www.topcoder.com/tc?module=Static&d1=match_editorials&d2=srm197'
p173
aS'http://www.topcoder.com/tc?module=Static&d1=match_editorials&d2=srm196'
p174
aS'http://www.topcoder.com/tc?module=Static&d1=match_editorials&d2=srm195'
p175
aS'http://www.topcoder.com/tc?module=Static&d1=match_editorials&d2=srm194'
p176
aS'http://www.topcoder.com/tc?module=Static&d1=match_editorials&d2=srm298'
p177
aS'http://www.topcoder.com/tc?module=Static&d1=match_editorials&d2=srm299'
p178
aS'http://www.topcoder.com/tc?module=Static&d1=match_editorials&d2=srm111'
p179
aS'http://www.topcoder.com/tc?module=Static&d1=match_editorials&d2=srm190'
p180
aS'http://www.topcoder.com/tc?module=Static&d1=match_editorials&d2=srm117'
p181
aS'http://www.topcoder.com/tc?module=Static&d1=match_editorials&d2=srm116'
p182
aS'http://www.topcoder.com/tc?module=Static&d1=match_editorials&d2=srm115'
p183
aS'http://www.topcoder.com/tc?module=Static&d1=match_editorials&d2=srm114'
p184
aS'http://www.topcoder.com/tc?module=Static&d1=match_editorials&d2=srm290'
p185
aS'http://www.topcoder.com/tc?module=Static&d1=match_editorials&d2=srm291'
p186
aS'http://www.topcoder.com/tc?module=Static&d1=match_editorials&d2=srm119'
p187
aS'http://www.topcoder.com/tc?module=Static&d1=match_editorials&d2=srm293'
p188
aS'http://www.topcoder.com/tc?module=Static&d1=match_editorials&d2=srm294'
p189
aS'http://www.topcoder.com/tc?module=Static&d1=match_editorials&d2=srm295'
p190
aS'http://www.topcoder.com/tc?module=Static&d1=match_editorials&d2=srm296'
p191
aS'http://www.topcoder.com/tc?module=Static&d1=match_editorials&d2=srm297'
p192
aS'http://apps.topcoder.com/wiki/display/tc/Member+SRM+455'
p193
aS'http://www.topcoder.com/tc?module=Static&d1=match_editorials&d2=srm226'
p194
aS'http://www.topcoder.com/tc?module=Static&d1=match_editorials&d2=crpf_finals'
p195
aS'http://www.topcoder.com/tc?module=Static&d1=match_editorials&d2=tccc06_qual_2'
p196
aS'http://www.topcoder.com/tc?module=Static&d1=match_editorials&d2=tccc03_regfinal'
p197
aS'http://www.topcoder.com/tc?module=Static&d1=match_editorials&d2=tccc06_qual_1'
p198
aS'http://www.topcoder.com/tc?module=Static&d1=match_editorials&d2=srm113'
p199
aS'http://www.topcoder.com/tc?module=Static&d1=match_editorials&d2=srm112'
p200
aS'http://www.topcoder.com/tc?module=Static&d1=match_editorials&d2=tccc04_qual_4'
p201
aS'http://www.topcoder.com/tc?module=Static&d1=match_editorials&d2=tccc04_qual_5'
p202
aS'http://apps.topcoder.com/wiki/display/tc/SRM+442'
p203
aS'http://apps.topcoder.com/wiki/display/tc/SRM+453.5'
p204
aS'http://www.topcoder.com/tc?module=Static&d1=match_editorials&d2=tccc04_qual_3'
p205
aS'http://www.topcoder.com/tc?module=Static&d1=match_editorials&d2=srm110'
p206
aS'http://www.topcoder.com/tc?module=Static&d1=match_editorials&d2=srm188'
p207
aS'http://www.topcoder.com/tc?module=Static&d1=match_editorials&d2=srm189'
p208
aS'http://www.topcoder.com/tc?module=Static&d1=match_editorials&d2=srm184'
p209
aS'http://www.topcoder.com/tc?module=Static&d1=match_editorials&d2=srm185'
p210
aS'http://www.topcoder.com/tc?module=Static&d1=match_editorials&d2=srm186'
p211
aS'http://www.topcoder.com/tc?module=Static&d1=match_editorials&d2=srm187'
p212
aS'http://www.topcoder.com/tc?module=Static&d1=match_editorials&d2=srm180'
p213
aS'http://www.topcoder.com/tc?module=Static&d1=match_editorials&d2=srm181'
p214
aS'http://www.topcoder.com/tc?module=Static&d1=match_editorials&d2=srm182'
p215
aS'http://www.topcoder.com/tc?module=Static&d1=match_editorials&d2=srm183'
p216
aS'http://www.topcoder.com/tc?module=Static&d1=match_editorials&d2=srm347'
p217
aS'http://www.topcoder.com/tc?module=Static&d1=match_editorials&d2=tco03_qual_rd_1'
p218
aS'http://www.topcoder.com/tc?module=Static&d1=match_editorials&d2=srm224'
p219
aS'http://www.topcoder.com/tc?module=Static&d1=match_editorials&d2=srm348'
p220
aS'http://www.topcoder.com/tc?module=Static&d1=match_editorials&d2=tco03_qual_rd_2'
p221
aS'http://www.topcoder.com/tc?module=Static&d1=match_editorials&d2=srm221'
p222
aS'http://www.topcoder.com/tc?module=Static&d1=match_editorials&d2=srm220'
p223
aS'http://www.topcoder.com/tc?module=Static&d1=match_editorials&d2=srm223'
p224
aS'http://www.topcoder.com/tc?module=Static&d1=match_editorials&d2=srm222'
p225
aS'http://www.topcoder.com/tc?module=Static&d1=match_editorials&d2=srm342'
p226
aS'http://www.topcoder.com/tc?module=Static&d1=match_editorials&d2=srm343'
p227
aS'http://www.topcoder.com/tc?module=Static&d1=match_editorials&d2=srm340'
p228
aS'http://www.topcoder.com/tc?module=Static&d1=match_editorials&d2=srm341'
p229
aS'http://www.topcoder.com/tc?module=Static&d1=match_editorials&d2=srm229'
p230
aS'http://www.topcoder.com/tc?module=Static&d1=match_editorials&d2=srm292'
p231
aS'http://www.topcoder.com/tc?module=Static&d1=match_editorials&d2=srm344'
p232
aS'http://www.topcoder.com/tc?module=Static&d1=match_editorials&d2=srm345'
p233
atp234
Rp235
.